target datalayout = "e-m:e-p270:32:32-p271:32:32-p272:64:64-i64:64-i128:128-f80:128-n8:16:32:64-S128"
target triple = "x86_64-pc-linux-gnu"

%struct._object = type { %union.anon, ptr }
%union.anon = type { i64 }
%struct.Py_buffer = type { ptr, ptr, i64, i64, i32, i32, ptr, ptr, ptr, ptr, ptr }
%struct.anon = type { i32, i32 }

@PyExc_OSError = external global ptr, align 8
@.str.47 = private unnamed_addr constant [14 x i8] c"S:sethostname\00", align 1
@.str.48 = private unnamed_addr constant [15 x i8] c"O&:sethostname\00", align 1
@.str.49 = private unnamed_addr constant [19 x i8] c"socket.sethostname\00", align 1
@.str.50 = private unnamed_addr constant [4 x i8] c"(O)\00", align 1
@_Py_NoneStruct = external global %struct._object, align 8

; Function Attrs: alwaysinline nounwind uwtable
define internal i32 @_Py_IsImmortal(ptr noundef %0) #8 {
  %2 = alloca ptr, align 8
  store ptr %0, ptr %2, align 8, !tbaa !3
  %3 = load ptr, ptr %2, align 8, !tbaa !3
  %4 = getelementptr inbounds nuw %struct._object, ptr %3, i32 0, i32 0
  %5 = getelementptr inbounds nuw %struct.anon, ptr %4, i32 0, i32 0
  %6 = load i32, ptr %5, align 8, !tbaa !35
  %7 = icmp slt i32 %6, 0
  %8 = zext i1 %7 to i32
  ret i32 %8
}

; Function Attrs: nounwind uwtable
define internal ptr @set_error() #0 {
  %1 = load ptr, ptr @PyExc_OSError, align 8, !tbaa !3
  %2 = call ptr @PyErr_SetFromErrno(ptr noundef %1)
  ret ptr %2
}

; Function Attrs: alwaysinline nounwind uwtable
define internal void @Py_DECREF(ptr noundef %0) #8 {
  %2 = alloca ptr, align 8
  store ptr %0, ptr %2, align 8, !tbaa !3
  %3 = load ptr, ptr %2, align 8, !tbaa !3
  %4 = call i32 @_Py_IsImmortal(ptr noundef %3)
  %5 = icmp ne i32 %4, 0
  br i1 %5, label %6, label %7

6:                                                ; preds = %1
  br label %16

7:                                                ; preds = %1
  %8 = load ptr, ptr %2, align 8, !tbaa !3
  %9 = getelementptr inbounds nuw %struct._object, ptr %8, i32 0, i32 0
  %10 = getelementptr inbounds nuw %struct.anon, ptr %9, i32 0, i32 0
  %11 = load i32, ptr %10, align 8, !tbaa !35
  %12 = add i32 %11, -1
  store i32 %12, ptr %10, align 8, !tbaa !35
  %13 = icmp eq i32 %12, 0
  br i1 %13, label %14, label %16

14:                                               ; preds = %7
  %15 = load ptr, ptr %2, align 8, !tbaa !3
  call void @_Py_Dealloc(ptr noundef %15)
  br label %16

16:                                               ; preds = %6, %14, %7
  ret void
}

; Function Attrs: nounwind uwtable
define internal ptr @socket_sethostname(ptr noundef %0, ptr noundef %1) #0 {
  %3 = alloca ptr, align 8
  %4 = alloca ptr, align 8
  %5 = alloca ptr, align 8
  %6 = alloca ptr, align 8
  %7 = alloca %struct.Py_buffer, align 8
  %8 = alloca i32, align 4
  %9 = alloca i32, align 4
  %10 = alloca i32, align 4
  store ptr %0, ptr %4, align 8, !tbaa !3
  store ptr %1, ptr %5, align 8, !tbaa !3
  call void @llvm.lifetime.start.p0(i64 8, ptr %6) #10
  call void @llvm.lifetime.start.p0(i64 80, ptr %7) #10
  call void @llvm.lifetime.start.p0(i64 4, ptr %8) #10
  call void @llvm.lifetime.start.p0(i64 4, ptr %9) #10
  store i32 0, ptr %9, align 4, !tbaa !15
  %11 = load ptr, ptr %5, align 8, !tbaa !3
  %12 = call i32 (ptr, ptr, ...) @PyArg_ParseTuple(ptr noundef %11, ptr noundef @.str.47, ptr noundef %6)
  %13 = icmp ne i32 %12, 0
  br i1 %13, label %20, label %14

14:                                               ; preds = %2
  call void @PyErr_Clear()
  %15 = load ptr, ptr %5, align 8, !tbaa !3
  %16 = call i32 (ptr, ptr, ...) @PyArg_ParseTuple(ptr noundef %15, ptr noundef @.str.48, ptr noundef @PyUnicode_FSConverter, ptr noundef %6)
  %17 = icmp ne i32 %16, 0
  br i1 %17, label %19, label %18

18:                                               ; preds = %14
  store ptr null, ptr %3, align 8
  store i32 1, ptr %10, align 4
  br label %47

19:                                               ; preds = %14
  store i32 1, ptr %9, align 4, !tbaa !15
  br label %20

20:                                               ; preds = %19, %2
  %21 = load ptr, ptr %6, align 8, !tbaa !3
  %22 = call i32 (ptr, ptr, ...) @PySys_Audit(ptr noundef @.str.49, ptr noundef @.str.50, ptr noundef %21)
  %23 = icmp slt i32 %22, 0
  br i1 %23, label %24, label %25

24:                                               ; preds = %20
  store ptr null, ptr %3, align 8
  store i32 1, ptr %10, align 4
  br label %47

25:                                               ; preds = %20
  %26 = load ptr, ptr %6, align 8, !tbaa !3
  %27 = call i32 @PyObject_GetBuffer(ptr noundef %26, ptr noundef %7, i32 noundef 0)
  store i32 %27, ptr %8, align 4, !tbaa !15
  %28 = load i32, ptr %8, align 4, !tbaa !15
  %29 = icmp ne i32 %28, 0
  br i1 %29, label %36, label %30

30:                                               ; preds = %25
  %31 = getelementptr inbounds nuw %struct.Py_buffer, ptr %7, i32 0, i32 0
  %32 = load ptr, ptr %31, align 8, !tbaa !36
  %33 = getelementptr inbounds nuw %struct.Py_buffer, ptr %7, i32 0, i32 2
  %34 = load i64, ptr %33, align 8, !tbaa !39
  %35 = call i32 @sethostname(ptr noundef %32, i64 noundef %34) #10
  store i32 %35, ptr %8, align 4, !tbaa !15
  call void @PyBuffer_Release(ptr noundef %7)
  br label %36

36:                                               ; preds = %30, %25
  %37 = load i32, ptr %9, align 4, !tbaa !15
  %38 = icmp ne i32 %37, 0
  br i1 %38, label %39, label %41

39:                                               ; preds = %36
  %40 = load ptr, ptr %6, align 8, !tbaa !3
  call void @Py_DECREF(ptr noundef %40)
  br label %41

41:                                               ; preds = %39, %36
  %42 = load i32, ptr %8, align 4, !tbaa !15
  %43 = icmp ne i32 %42, 0
  br i1 %43, label %44, label %46

44:                                               ; preds = %41
  %45 = call ptr @set_error()
  store ptr %45, ptr %3, align 8
  store i32 1, ptr %10, align 4
  br label %47

46:                                               ; preds = %41
  store ptr @_Py_NoneStruct, ptr %3, align 8
  store i32 1, ptr %10, align 4
  br label %47

47:                                               ; preds = %46, %44, %24, %18
  call void @llvm.lifetime.end.p0(i64 4, ptr %9) #10
  call void @llvm.lifetime.end.p0(i64 4, ptr %8) #10
  call void @llvm.lifetime.end.p0(i64 80, ptr %7) #10
  call void @llvm.lifetime.end.p0(i64 8, ptr %6) #10
  %48 = load ptr, ptr %3, align 8
  ret ptr %48
}