; Function Attrs: nounwind uwtable
define internal ptr @socket_sethostname(ptr readnone captures(none) %0, ptr noundef %1) #0 {
  %3 = alloca ptr, align 8
  %4 = alloca %struct.Py_buffer, align 8
  call void @llvm.lifetime.start.p0(i64 8, ptr nonnull %3) #13
  call void @llvm.lifetime.start.p0(i64 80, ptr nonnull %4) #13
  %5 = call i32 (ptr, ptr, ...) @PyArg_ParseTuple(ptr noundef %1, ptr noundef nonnull @.str.47, ptr noundef nonnull %3) #13
  %.not.not = icmp eq i32 %5, 0
  br i1 %.not.not, label %6, label %8

6:                                                ; preds = %2
  call void @PyErr_Clear() #13
  %7 = call i32 (ptr, ptr, ...) @PyArg_ParseTuple(ptr noundef %1, ptr noundef nonnull @.str.48, ptr noundef nonnull @PyUnicode_FSConverter, ptr noundef nonnull %3) #13
  %.not8 = icmp eq i32 %7, 0
  br i1 %.not8, label %32, label %8

8:                                                ; preds = %6, %2
  %9 = load ptr, ptr %3, align 8, !tbaa !19
  %10 = call i32 (ptr, ptr, ...) @PySys_Audit(ptr noundef nonnull @.str.49, ptr noundef nonnull @.str.50, ptr noundef %9) #13
  %11 = icmp slt i32 %10, 0
  br i1 %11, label %32, label %12

12:                                               ; preds = %8
  %13 = load ptr, ptr %3, align 8, !tbaa !19
  %14 = call i32 @PyObject_GetBuffer(ptr noundef %13, ptr noundef nonnull %4, i32 noundef 0) #13
  %.not9 = icmp eq i32 %14, 0
  br i1 %.not9, label %15, label %21

15:                                               ; preds = %12
  %16 = load ptr, ptr %4, align 8, !tbaa !27
  %17 = getelementptr inbounds nuw i8, ptr %4, i64 16
  %18 = load i64, ptr %17, align 8, !tbaa !31
  %19 = call i32 @sethostname(ptr noundef %16, i64 noundef %18) #13
  call void @PyBuffer_Release(ptr noundef nonnull %4) #13
  %20 = icmp eq i32 %19, 0
  br label %21

21:                                               ; preds = %15, %12
  %.05 = phi i1 [ false, %12 ], [ %20, %15 ]
  br i1 %.not.not, label %22, label %Py_DECREF.exit

22:                                               ; preds = %21
  %23 = load ptr, ptr %3, align 8, !tbaa !19
  %24 = load i32, ptr %23, align 8, !tbaa !18
  %.not.i = icmp sgt i32 %24, -1
  br i1 %.not.i, label %25, label %Py_DECREF.exit

25:                                               ; preds = %22
  %26 = add nsw i32 %24, -1
  store i32 %26, ptr %23, align 8, !tbaa !18
  %27 = icmp eq i32 %26, 0
  br i1 %27, label %28, label %Py_DECREF.exit

28:                                               ; preds = %25
  call void @_Py_Dealloc(ptr noundef nonnull %23) #13
  br label %Py_DECREF.exit

Py_DECREF.exit:                                   ; preds = %28, %25, %22, %21
  br i1 %.05, label %32, label %29

29:                                               ; preds = %Py_DECREF.exit
  %30 = load ptr, ptr @PyExc_OSError, align 8, !tbaa !19
  %31 = call ptr @PyErr_SetFromErrno(ptr noundef %30) #13
  br label %32

32:                                               ; preds = %Py_DECREF.exit, %8, %6, %29
  %.06 = phi ptr [ %31, %29 ], [ null, %6 ], [ null, %8 ], [ @_Py_NoneStruct, %Py_DECREF.exit ]
  call void @llvm.lifetime.end.p0(i64 80, ptr nonnull %4) #13
  call void @llvm.lifetime.end.p0(i64 8, ptr nonnull %3) #13
  ret ptr %.06
}